; Function Attrs: nounwind uwtable
define void @Txs_ManCollectCone_rec(ptr noundef %0, ptr noundef %1, ptr noundef %2, ptr noundef %3) local_unnamed_addr #0 {
  %5 = getelementptr inbounds nuw i8, ptr %1, i64 8
  %6 = load i32, ptr %5, align 4, !tbaa !27
  %.not = icmp eq i32 %6, -1
  br i1 %.not, label %87, label %7

7:                                                ; preds = %4
  store i32 -1, ptr %5, align 4, !tbaa !27
  %.val = load i64, ptr %1, align 4
  %8 = and i64 %.val, 2684354559
  %narrow.i.not = icmp eq i64 %8, 2684354559
  br i1 %narrow.i.not, label %9, label %43

9:                                                ; preds = %7
  %10 = getelementptr i8, ptr %0, i64 32
  %.val18 = load ptr, ptr %10, align 8, !tbaa !29
  %11 = ptrtoint ptr %1 to i64
  %12 = ptrtoint ptr %.val18 to i64
  %13 = sub i64 %11, %12
  %14 = getelementptr inbounds nuw i8, ptr %2, i64 4
  %15 = load i32, ptr %14, align 4, !tbaa !12
  %16 = load i32, ptr %2, align 8, !tbaa !16
  %17 = icmp eq i32 %15, %16
  br i1 %17, label %18, label %.Vec_IntGrow.exit10_crit_edge.i

.Vec_IntGrow.exit10_crit_edge.i:                  ; preds = %9
  %.phi.trans.insert.i = getelementptr inbounds nuw i8, ptr %2, i64 8
  %.pre.i = load ptr, ptr %.phi.trans.insert.i, align 8, !tbaa !17
  br label %Vec_IntPush.exit

18:                                               ; preds = %9
  %19 = icmp slt i32 %15, 16
  br i1 %19, label %20, label %28

20:                                               ; preds = %18
  %21 = getelementptr inbounds nuw i8, ptr %2, i64 8
  %22 = load ptr, ptr %21, align 8, !tbaa !17
  %.not9.i.i = icmp eq ptr %22, null
  br i1 %.not9.i.i, label %25, label %23

23:                                               ; preds = %20
  %24 = tail call dereferenceable_or_null(64) ptr @realloc(ptr noundef nonnull %22, i64 noundef 64) #16
  br label %Vec_IntGrow.exit.i

25:                                               ; preds = %20
  %26 = tail call noalias dereferenceable_or_null(64) ptr @malloc(i64 noundef 64) #15
  br label %Vec_IntGrow.exit.i

Vec_IntGrow.exit.i:                               ; preds = %25, %23
  %27 = phi ptr [ %24, %23 ], [ %26, %25 ]
  store ptr %27, ptr %21, align 8, !tbaa !17
  store i32 16, ptr %2, align 8, !tbaa !16
  br label %Vec_IntPush.exit

28:                                               ; preds = %18
  %29 = shl nuw nsw i32 %15, 1
  %30 = getelementptr inbounds nuw i8, ptr %2, i64 8
  %31 = load ptr, ptr %30, align 8, !tbaa !17
  %.not9.i9.i = icmp eq ptr %31, null
  %32 = zext nneg i32 %29 to i64
  %33 = shl nuw nsw i64 %32, 2
  br i1 %.not9.i9.i, label %36, label %34

34:                                               ; preds = %28
  %35 = tail call ptr @realloc(ptr noundef nonnull %31, i64 noundef %33) #16
  br label %38

36:                                               ; preds = %28
  %37 = tail call noalias ptr @malloc(i64 noundef %33) #15
  br label %38

38:                                               ; preds = %36, %34
  %39 = phi ptr [ %35, %34 ], [ %37, %36 ]
  store ptr %39, ptr %30, align 8, !tbaa !17
  store i32 %29, ptr %2, align 8, !tbaa !16
  br label %Vec_IntPush.exit

Vec_IntPush.exit:                                 ; preds = %.Vec_IntGrow.exit10_crit_edge.i, %Vec_IntGrow.exit.i, %38
  %40 = phi ptr [ %.pre.i, %.Vec_IntGrow.exit10_crit_edge.i ], [ %39, %38 ], [ %27, %Vec_IntGrow.exit.i ]
  %41 = load i32, ptr %14, align 4, !tbaa !12
  %42 = add nsw i32 %41, 1
  store i32 %42, ptr %14, align 4, !tbaa !12
  br label %.sink.split

43:                                               ; preds = %7
  %44 = and i64 %.val, 536870911
  %45 = sub nsw i64 0, %44
  %46 = getelementptr inbounds %struct.Gia_Obj_t_, ptr %1, i64 %45
  tail call void @Txs_ManCollectCone_rec(ptr noundef %0, ptr noundef nonnull %46, ptr noundef %2, ptr noundef %3)
  %47 = load i64, ptr %1, align 4
  %48 = lshr i64 %47, 32
  %49 = and i64 %48, 536870911
  %50 = sub nsw i64 0, %49
  %51 = getelementptr inbounds %struct.Gia_Obj_t_, ptr %1, i64 %50
  tail call void @Txs_ManCollectCone_rec(ptr noundef %0, ptr noundef nonnull %51, ptr noundef %2, ptr noundef %3)
  %52 = getelementptr i8, ptr %0, i64 32
  %.val19 = load ptr, ptr %52, align 8, !tbaa !29
  %53 = ptrtoint ptr %1 to i64
  %54 = ptrtoint ptr %.val19 to i64
  %55 = sub i64 %53, %54
  %56 = getelementptr inbounds nuw i8, ptr %3, i64 4
  %57 = load i32, ptr %56, align 4, !tbaa !12
  %58 = load i32, ptr %3, align 8, !tbaa !16
  %59 = icmp eq i32 %57, %58
  br i1 %59, label %60, label %.Vec_IntGrow.exit10_crit_edge.i20

.Vec_IntGrow.exit10_crit_edge.i20:                ; preds = %43
  %.phi.trans.insert.i21 = getelementptr inbounds nuw i8, ptr %3, i64 8
  %.pre.i22 = load ptr, ptr %.phi.trans.insert.i21, align 8, !tbaa !17
  br label %Vec_IntPush.exit26

60:                                               ; preds = %43
  %61 = icmp slt i32 %57, 16
  br i1 %61, label %62, label %70

62:                                               ; preds = %60
  %63 = getelementptr inbounds nuw i8, ptr %3, i64 8
  %64 = load ptr, ptr %63, align 8, !tbaa !17
  %.not9.i.i24 = icmp eq ptr %64, null
  br i1 %.not9.i.i24, label %67, label %65

65:                                               ; preds = %62
  %66 = tail call dereferenceable_or_null(64) ptr @realloc(ptr noundef nonnull %64, i64 noundef 64) #16
  br label %Vec_IntGrow.exit.i25

67:                                               ; preds = %62
  %68 = tail call noalias dereferenceable_or_null(64) ptr @malloc(i64 noundef 64) #15
  br label %Vec_IntGrow.exit.i25

Vec_IntGrow.exit.i25:                             ; preds = %67, %65
  %69 = phi ptr [ %66, %65 ], [ %68, %67 ]
  store ptr %69, ptr %63, align 8, !tbaa !17
  store i32 16, ptr %3, align 8, !tbaa !16
  br label %Vec_IntPush.exit26

70:                                               ; preds = %60
  %71 = shl nuw nsw i32 %57, 1
  %72 = getelementptr inbounds nuw i8, ptr %3, i64 8
  %73 = load ptr, ptr %72, align 8, !tbaa !17
  %.not9.i9.i23 = icmp eq ptr %73, null
  %74 = zext nneg i32 %71 to i64
  %75 = shl nuw nsw i64 %74, 2
  br i1 %.not9.i9.i23, label %78, label %76

76:                                               ; preds = %70
  %77 = tail call ptr @realloc(ptr noundef nonnull %73, i64 noundef %75) #16
  br label %80

78:                                               ; preds = %70
  %79 = tail call noalias ptr @malloc(i64 noundef %75) #15
  br label %80

80:                                               ; preds = %78, %76
  %81 = phi ptr [ %77, %76 ], [ %79, %78 ]
  store ptr %81, ptr %72, align 8, !tbaa !17
  store i32 %71, ptr %3, align 8, !tbaa !16
  br label %Vec_IntPush.exit26

Vec_IntPush.exit26:                               ; preds = %.Vec_IntGrow.exit10_crit_edge.i20, %Vec_IntGrow.exit.i25, %80
  %82 = phi ptr [ %.pre.i22, %.Vec_IntGrow.exit10_crit_edge.i20 ], [ %81, %80 ], [ %69, %Vec_IntGrow.exit.i25 ]
  %83 = load i32, ptr %56, align 4, !tbaa !12
  %84 = add nsw i32 %83, 1
  store i32 %84, ptr %56, align 4, !tbaa !12
  br label %.sink.split

.sink.split:                                      ; preds = %Vec_IntPush.exit, %Vec_IntPush.exit26
  %.sink30 = phi i32 [ %83, %Vec_IntPush.exit26 ], [ %41, %Vec_IntPush.exit ]
  %.sink28 = phi ptr [ %82, %Vec_IntPush.exit26 ], [ %40, %Vec_IntPush.exit ]
  %.sink.in.in = phi i64 [ %55, %Vec_IntPush.exit26 ], [ %13, %Vec_IntPush.exit ]
  %.sink.in = sdiv exact i64 %.sink.in.in, 12
  %.sink = trunc i64 %.sink.in to i32
  %85 = sext i32 %.sink30 to i64
  %86 = getelementptr inbounds i32, ptr %.sink28, i64 %85
  store i32 %.sink, ptr %86, align 4, !tbaa !46
  br label %87

87:                                               ; preds = %.sink.split, %4
  ret void
}